target datalayout = "e-m:e-p270:32:32-p271:32:32-p272:64:64-i64:64-i128:128-f80:128-n8:16:32:64-S128"
target triple = "x86_64-pc-linux-gnu"

%struct.dlist_head = type { %struct.dlist_node }
%struct.dlist_node = type { ptr, ptr }
%struct.AutoVacuumShmemStruct = type { [2 x i32], i32, %struct.dclist_head, %struct.dlist_head, ptr, [256 x %struct.AutoVacuumWorkItem], %struct.pg_atomic_uint32 }
%struct.dclist_head = type { %struct.dlist_head, i32 }
%struct.AutoVacuumWorkItem = type { i32, i8, i8, i32, i32, i32 }
%struct.pg_atomic_uint32 = type { i32 }
%union.LWLockPadded = type { %struct.LWLock, [112 x i8] }
%struct.LWLock = type { i16, %struct.pg_atomic_uint32, %struct.proclist_head }
%struct.proclist_head = type { i32, i32 }
%struct.WorkerInfoData = type { %struct.dlist_node, i32, i32, ptr, i64, %struct.pg_atomic_flag, i8 }
%struct.pg_atomic_flag = type { i8 }

@.str.1 = private unnamed_addr constant [13 x i8] c"autovacuum.c\00", align 1
@AutoVacuumShmem = internal global ptr null, align 8
@MainLWLockArray = external global ptr, align 8
@MyWorkerInfo = internal global ptr null, align 8
@av_storage_param_cost_delay = internal global double -1.000000e+00, align 8
@vacuum_cost_delay = external global double, align 8
@autovacuum_vac_cost_delay = dso_local global double 0.000000e+00, align 8
@VacuumCostDelay = external global double, align 8
@VacuumCostLimit = external global i32, align 4
@vacuum_cost_limit = external global i32, align 4
@VacuumFailsafeActive = external global i8, align 1
@VacuumCostActive = external global i8, align 1
@VacuumCostBalance = external global i32, align 4
@.str.21 = private unnamed_addr constant [110 x i8] c"Autovacuum VacuumUpdateCosts(db=%u, rel=%u, dobalance=%s, cost_limit=%d, cost_delay=%g active=%s failsafe=%s)\00", align 1
@.str.22 = private unnamed_addr constant [3 x i8] c"no\00", align 1
@.str.23 = private unnamed_addr constant [4 x i8] c"yes\00", align 1
@__func__.VacuumUpdateCosts = private unnamed_addr constant [18 x i8] c"VacuumUpdateCosts\00", align 1
@av_storage_param_cost_limit = internal global i32 -1, align 4
@autovacuum_vac_cost_limit = dso_local global i32 0, align 4
@.str.24 = private unnamed_addr constant [33 x i8] c"nworkers_for_balance must be > 0\00", align 1
@__func__.AutoVacuumUpdateCostLimit = private unnamed_addr constant [26 x i8] c"AutoVacuumUpdateCostLimit\00", align 1

; Function Attrs: inlinehint nounwind uwtable
define internal i32 @pg_atomic_read_u32_impl(ptr noundef %0) #6 {
  %2 = alloca ptr, align 8
  store ptr %0, ptr %2, align 8
  %3 = load ptr, ptr %2, align 8
  %4 = getelementptr inbounds nuw %struct.pg_atomic_uint32, ptr %3, i32 0, i32 0
  %5 = load volatile i32, ptr %4, align 4
  ret i32 %5
}

; Function Attrs: inlinehint nounwind uwtable
define internal zeroext i1 @pg_atomic_unlocked_test_flag_impl(ptr noundef %0) #6 {
  %2 = alloca ptr, align 8
  store ptr %0, ptr %2, align 8
  %3 = load ptr, ptr %2, align 8
  %4 = getelementptr inbounds nuw %struct.pg_atomic_flag, ptr %3, i32 0, i32 0
  %5 = load volatile i8, ptr %4, align 1
  %6 = sext i8 %5 to i32
  %7 = icmp eq i32 %6, 0
  ret i1 %7
}

; Function Attrs: inlinehint nounwind uwtable
define internal i32 @pg_atomic_read_u32(ptr noundef %0) #6 {
  %2 = alloca ptr, align 8
  store ptr %0, ptr %2, align 8
  %3 = load ptr, ptr %2, align 8
  %4 = call i32 @pg_atomic_read_u32_impl(ptr noundef %3)
  ret i32 %4
}

; Function Attrs: inlinehint nounwind uwtable
define internal zeroext i1 @pg_atomic_unlocked_test_flag(ptr noundef %0) #6 {
  %2 = alloca ptr, align 8
  store ptr %0, ptr %2, align 8
  %3 = load ptr, ptr %2, align 8
  %4 = call zeroext i1 @pg_atomic_unlocked_test_flag_impl(ptr noundef %3)
  ret i1 %4
}

; Function Attrs: nounwind uwtable
define dso_local void @AutoVacuumUpdateCostLimit() #4 {
  %1 = alloca i32, align 4
  %2 = alloca i32, align 4
  %3 = load ptr, ptr @MyWorkerInfo, align 8
  %4 = icmp ne ptr %3, null
  br i1 %4, label %6, label %5

5:                                                ; preds = %0
  br label %55

6:                                                ; preds = %0
  %7 = load i32, ptr @av_storage_param_cost_limit, align 4
  %8 = icmp sgt i32 %7, 0
  br i1 %8, label %9, label %11

9:                                                ; preds = %6
  %10 = load i32, ptr @av_storage_param_cost_limit, align 4
  store i32 %10, ptr @vacuum_cost_limit, align 4
  br label %55

11:                                               ; preds = %6
  call void @llvm.lifetime.start.p0(i64 4, ptr %1) #14
  %12 = load i32, ptr @autovacuum_vac_cost_limit, align 4
  %13 = icmp sgt i32 %12, 0
  br i1 %13, label %14, label %16

14:                                               ; preds = %11
  %15 = load i32, ptr @autovacuum_vac_cost_limit, align 4
  store i32 %15, ptr @vacuum_cost_limit, align 4
  br label %18

16:                                               ; preds = %11
  %17 = load i32, ptr @VacuumCostLimit, align 4
  store i32 %17, ptr @vacuum_cost_limit, align 4
  br label %18

18:                                               ; preds = %16, %14
  %19 = load ptr, ptr @MyWorkerInfo, align 8
  %20 = getelementptr inbounds nuw %struct.WorkerInfoData, ptr %19, i32 0, i32 5
  %21 = call zeroext i1 @pg_atomic_unlocked_test_flag(ptr noundef %20)
  br i1 %21, label %22, label %23

22:                                               ; preds = %18
  store i32 1, ptr %2, align 4
  br label %52

23:                                               ; preds = %18
  %24 = load ptr, ptr @AutoVacuumShmem, align 8
  %25 = getelementptr inbounds nuw %struct.AutoVacuumShmemStruct, ptr %24, i32 0, i32 6
  %26 = call i32 @pg_atomic_read_u32(ptr noundef %25)
  store i32 %26, ptr %1, align 4
  %27 = load i32, ptr %1, align 4
  %28 = icmp sle i32 %27, 0
  br i1 %28, label %29, label %40

29:                                               ; preds = %23
  br label %30

30:                                               ; preds = %29
  br i1 true, label %31, label %33

31:                                               ; preds = %30
  %32 = call zeroext i1 @errstart_cold(i32 noundef 21, ptr noundef null) #15
  br i1 %32, label %35, label %37

33:                                               ; preds = %30
  %34 = call zeroext i1 @errstart(i32 noundef 21, ptr noundef null)
  br i1 %34, label %35, label %37

35:                                               ; preds = %33, %31
  %36 = call i32 (ptr, ...) @errmsg_internal(ptr noundef @.str.24)
  call void @errfinish(ptr noundef @.str.1, i32 noundef 1752, ptr noundef @__func__.AutoVacuumUpdateCostLimit)
  br label %37

37:                                               ; preds = %35, %33, %31
  unreachable

38:                                               ; No predecessors!
  br label %39

39:                                               ; preds = %38
  br label %40

40:                                               ; preds = %39, %23
  %41 = load i32, ptr @vacuum_cost_limit, align 4
  %42 = load i32, ptr %1, align 4
  %43 = sdiv i32 %41, %42
  %44 = icmp sgt i32 %43, 1
  br i1 %44, label %45, label %49

45:                                               ; preds = %40
  %46 = load i32, ptr @vacuum_cost_limit, align 4
  %47 = load i32, ptr %1, align 4
  %48 = sdiv i32 %46, %47
  br label %50

49:                                               ; preds = %40
  br label %50

50:                                               ; preds = %49, %45
  %51 = phi i32 [ %48, %45 ], [ 1, %49 ]
  store i32 %51, ptr @vacuum_cost_limit, align 4
  store i32 0, ptr %2, align 4
  br label %52

52:                                               ; preds = %50, %22
  call void @llvm.lifetime.end.p0(i64 4, ptr %1) #14
  %53 = load i32, ptr %2, align 4
  switch i32 %53, label %56 [
    i32 0, label %54
    i32 1, label %55
  ]

54:                                               ; preds = %52
  br label %55

55:                                               ; preds = %5, %52, %54, %9
  ret void

56:                                               ; preds = %52
  unreachable
}

; Function Attrs: nounwind uwtable
define dso_local void @VacuumUpdateCosts() #4 {
  %1 = alloca i32, align 4
  %2 = alloca i32, align 4
  %3 = load ptr, ptr @MyWorkerInfo, align 8
  %4 = icmp ne ptr %3, null
  br i1 %4, label %5, label %19

5:                                                ; preds = %0
  %6 = load double, ptr @av_storage_param_cost_delay, align 8
  %7 = fcmp oge double %6, 0.000000e+00
  br i1 %7, label %8, label %10

8:                                                ; preds = %5
  %9 = load double, ptr @av_storage_param_cost_delay, align 8
  store double %9, ptr @vacuum_cost_delay, align 8
  br label %18

10:                                               ; preds = %5
  %11 = load double, ptr @autovacuum_vac_cost_delay, align 8
  %12 = fcmp oge double %11, 0.000000e+00
  br i1 %12, label %13, label %15

13:                                               ; preds = %10
  %14 = load double, ptr @autovacuum_vac_cost_delay, align 8
  store double %14, ptr @vacuum_cost_delay, align 8
  br label %17

15:                                               ; preds = %10
  %16 = load double, ptr @VacuumCostDelay, align 8
  store double %16, ptr @vacuum_cost_delay, align 8
  br label %17

17:                                               ; preds = %15, %13
  br label %18

18:                                               ; preds = %17, %8
  call void @AutoVacuumUpdateCostLimit()
  br label %22

19:                                               ; preds = %0
  %20 = load double, ptr @VacuumCostDelay, align 8
  store double %20, ptr @vacuum_cost_delay, align 8
  %21 = load i32, ptr @VacuumCostLimit, align 4
  store i32 %21, ptr @vacuum_cost_limit, align 4
  br label %22

22:                                               ; preds = %19, %18
  %23 = load i8, ptr @VacuumFailsafeActive, align 1, !range !6, !noundef !7
  %24 = trunc i8 %23 to i1
  br i1 %24, label %25, label %26

25:                                               ; preds = %22
  br label %32

26:                                               ; preds = %22
  %27 = load double, ptr @vacuum_cost_delay, align 8
  %28 = fcmp ogt double %27, 0.000000e+00
  br i1 %28, label %29, label %30

29:                                               ; preds = %26
  store i8 1, ptr @VacuumCostActive, align 1
  br label %31

30:                                               ; preds = %26
  store i8 0, ptr @VacuumCostActive, align 1
  store i32 0, ptr @VacuumCostBalance, align 4
  br label %31

31:                                               ; preds = %30, %29
  br label %32

32:                                               ; preds = %31, %25
  %33 = load ptr, ptr @MyWorkerInfo, align 8
  %34 = icmp ne ptr %33, null
  br i1 %34, label %35, label %73

35:                                               ; preds = %32
  %36 = call zeroext i1 @message_level_is_interesting(i32 noundef 13)
  br i1 %36, label %37, label %73

37:                                               ; preds = %35
  call void @llvm.lifetime.start.p0(i64 4, ptr %1) #14
  call void @llvm.lifetime.start.p0(i64 4, ptr %2) #14
  %38 = load ptr, ptr @MainLWLockArray, align 8
  %39 = getelementptr inbounds %union.LWLockPadded, ptr %38, i64 22
  %40 = call zeroext i1 @LWLockAcquire(ptr noundef %39, i32 noundef 1)
  %41 = load ptr, ptr @MyWorkerInfo, align 8
  %42 = getelementptr inbounds nuw %struct.WorkerInfoData, ptr %41, i32 0, i32 1
  %43 = load i32, ptr %42, align 8
  store i32 %43, ptr %1, align 4
  %44 = load ptr, ptr @MyWorkerInfo, align 8
  %45 = getelementptr inbounds nuw %struct.WorkerInfoData, ptr %44, i32 0, i32 2
  %46 = load i32, ptr %45, align 4
  store i32 %46, ptr %2, align 4
  %47 = load ptr, ptr @MainLWLockArray, align 8
  %48 = getelementptr inbounds %union.LWLockPadded, ptr %47, i64 22
  call void @LWLockRelease(ptr noundef %48)
  br label %49

49:                                               ; preds = %37
  br i1 false, label %50, label %52

50:                                               ; preds = %49
  %51 = call zeroext i1 @errstart_cold(i32 noundef 13, ptr noundef null) #15
  br i1 %51, label %54, label %70

52:                                               ; preds = %49
  %53 = call zeroext i1 @errstart(i32 noundef 13, ptr noundef null)
  br i1 %53, label %54, label %70

54:                                               ; preds = %52, %50
  %55 = load i32, ptr %1, align 4
  %56 = load i32, ptr %2, align 4
  %57 = load ptr, ptr @MyWorkerInfo, align 8
  %58 = getelementptr inbounds nuw %struct.WorkerInfoData, ptr %57, i32 0, i32 5
  %59 = call zeroext i1 @pg_atomic_unlocked_test_flag(ptr noundef %58)
  %60 = select i1 %59, ptr @.str.22, ptr @.str.23
  %61 = load i32, ptr @vacuum_cost_limit, align 4
  %62 = load double, ptr @vacuum_cost_delay, align 8
  %63 = load double, ptr @vacuum_cost_delay, align 8
  %64 = fcmp ogt double %63, 0.000000e+00
  %65 = select i1 %64, ptr @.str.23, ptr @.str.22
  %66 = load i8, ptr @VacuumFailsafeActive, align 1, !range !6, !noundef !7
  %67 = trunc i8 %66 to i1
  %68 = select i1 %67, ptr @.str.23, ptr @.str.22
  %69 = call i32 (ptr, ...) @errmsg_internal(ptr noundef @.str.21, i32 noundef %55, i32 noundef %56, ptr noundef %60, i32 noundef %61, double noundef %62, ptr noundef %65, ptr noundef %68)
  call void @errfinish(ptr noundef @.str.1, i32 noundef 1708, ptr noundef @__func__.VacuumUpdateCosts)
  br label %70

70:                                               ; preds = %54, %52, %50
  br label %71

71:                                               ; preds = %70
  br label %72

72:                                               ; preds = %71
  call void @llvm.lifetime.end.p0(i64 4, ptr %2) #14
  call void @llvm.lifetime.end.p0(i64 4, ptr %1) #14
  br label %73

73:                                               ; preds = %72, %35, %32
  ret void
}