; Function Attrs: nounwind uwtable
define dso_local void @VacuumUpdateCosts() local_unnamed_addr #4 {
  %1 = load ptr, ptr @MyWorkerInfo, align 8
  %.not = icmp eq ptr %1, null
  br i1 %.not, label %30, label %2

2:                                                ; preds = %0
  %3 = load double, ptr @av_storage_param_cost_delay, align 8
  %4 = fcmp ult double %3, 0.000000e+00
  br i1 %4, label %5, label %10

5:                                                ; preds = %2
  %6 = load double, ptr @autovacuum_vac_cost_delay, align 8
  %7 = fcmp ult double %6, 0.000000e+00
  br i1 %7, label %8, label %10

8:                                                ; preds = %5
  %9 = load double, ptr @VacuumCostDelay, align 8
  br label %10

10:                                               ; preds = %5, %2, %8
  %.sink = phi double [ %9, %8 ], [ %3, %2 ], [ %6, %5 ]
  store double %.sink, ptr @vacuum_cost_delay, align 8
  %11 = load i32, ptr @av_storage_param_cost_limit, align 4
  %12 = icmp sgt i32 %11, 0
  br i1 %12, label %AutoVacuumUpdateCostLimit.exit.sink.split, label %13

13:                                               ; preds = %10
  %14 = load i32, ptr @autovacuum_vac_cost_limit, align 4
  %15 = icmp sgt i32 %14, 0
  %16 = load i32, ptr @VacuumCostLimit, align 4
  %storemerge.i = select i1 %15, i32 %14, i32 %16
  store i32 %storemerge.i, ptr @vacuum_cost_limit, align 4
  %17 = getelementptr inbounds nuw i8, ptr %1, i64 40
  %18 = load volatile i8, ptr %17, align 1
  %19 = icmp eq i8 %18, 0
  br i1 %19, label %AutoVacuumUpdateCostLimit.exit, label %20

20:                                               ; preds = %13
  %21 = load ptr, ptr @AutoVacuumShmem, align 8
  %22 = getelementptr inbounds nuw i8, ptr %21, i64 5184
  %23 = load volatile i32, ptr %22, align 4
  %24 = icmp slt i32 %23, 1
  br i1 %24, label %25, label %28

25:                                               ; preds = %20
  %26 = tail call zeroext i1 @errstart_cold(i32 noundef 21, ptr noundef null) #23
  tail call void @llvm.assume(i1 %26)
  %27 = tail call i32 (ptr, ...) @errmsg_internal(ptr noundef nonnull @.str.24) #18
  tail call void @errfinish(ptr noundef nonnull @.str.1, i32 noundef 1752, ptr noundef nonnull @__func__.AutoVacuumUpdateCostLimit) #18
  unreachable

28:                                               ; preds = %20
  %29 = sdiv i32 %storemerge.i, %23
  %spec.select.i = tail call i32 @llvm.smax.i32(i32 %29, i32 1)
  br label %AutoVacuumUpdateCostLimit.exit.sink.split

30:                                               ; preds = %0
  %31 = load double, ptr @VacuumCostDelay, align 8
  store double %31, ptr @vacuum_cost_delay, align 8
  %32 = load i32, ptr @VacuumCostLimit, align 4
  br label %AutoVacuumUpdateCostLimit.exit.sink.split

AutoVacuumUpdateCostLimit.exit.sink.split:        ; preds = %10, %28, %30
  %spec.select.sink.i.sink = phi i32 [ %32, %30 ], [ %spec.select.i, %28 ], [ %11, %10 ]
  %.ph = phi double [ %31, %30 ], [ %.sink, %28 ], [ %.sink, %10 ]
  store i32 %spec.select.sink.i.sink, ptr @vacuum_cost_limit, align 4
  br label %AutoVacuumUpdateCostLimit.exit

AutoVacuumUpdateCostLimit.exit:                   ; preds = %AutoVacuumUpdateCostLimit.exit.sink.split, %13
  %33 = phi double [ %.sink, %13 ], [ %.ph, %AutoVacuumUpdateCostLimit.exit.sink.split ]
  %34 = load i8, ptr @VacuumFailsafeActive, align 1, !range !4, !noundef !5
  %35 = trunc nuw i8 %34 to i1
  br i1 %35, label %40, label %36

36:                                               ; preds = %AutoVacuumUpdateCostLimit.exit
  %37 = fcmp ogt double %33, 0.000000e+00
  br i1 %37, label %38, label %39

38:                                               ; preds = %36
  store i8 1, ptr @VacuumCostActive, align 1
  br label %40

39:                                               ; preds = %36
  store i8 0, ptr @VacuumCostActive, align 1
  store i32 0, ptr @VacuumCostBalance, align 4
  br label %40

40:                                               ; preds = %38, %39, %AutoVacuumUpdateCostLimit.exit
  br i1 %.not, label %69, label %41

41:                                               ; preds = %40
  %42 = tail call zeroext i1 @message_level_is_interesting(i32 noundef 13) #18
  br i1 %42, label %43, label %69

43:                                               ; preds = %41
  %44 = load ptr, ptr @MainLWLockArray, align 8
  %45 = getelementptr inbounds nuw i8, ptr %44, i64 2816
  %46 = tail call zeroext i1 @LWLockAcquire(ptr noundef nonnull %45, i32 noundef 1) #18
  %47 = load ptr, ptr @MyWorkerInfo, align 8
  %48 = getelementptr inbounds nuw i8, ptr %47, i64 16
  %49 = load i32, ptr %48, align 8
  %50 = getelementptr inbounds nuw i8, ptr %47, i64 20
  %51 = load i32, ptr %50, align 4
  %52 = load ptr, ptr @MainLWLockArray, align 8
  %53 = getelementptr inbounds nuw i8, ptr %52, i64 2816
  tail call void @LWLockRelease(ptr noundef nonnull %53) #18
  %54 = tail call zeroext i1 @errstart(i32 noundef 13, ptr noundef null) #18
  br i1 %54, label %55, label %69

55:                                               ; preds = %43
  %56 = load ptr, ptr @MyWorkerInfo, align 8
  %57 = getelementptr inbounds nuw i8, ptr %56, i64 40
  %58 = load volatile i8, ptr %57, align 1
  %59 = icmp eq i8 %58, 0
  %60 = select i1 %59, ptr @.str.22, ptr @.str.23
  %61 = load i32, ptr @vacuum_cost_limit, align 4
  %62 = load double, ptr @vacuum_cost_delay, align 8
  %63 = fcmp ogt double %62, 0.000000e+00
  %64 = select i1 %63, ptr @.str.23, ptr @.str.22
  %65 = load i8, ptr @VacuumFailsafeActive, align 1, !range !4, !noundef !5
  %66 = trunc nuw i8 %65 to i1
  %67 = select i1 %66, ptr @.str.23, ptr @.str.22
  %68 = tail call i32 (ptr, ...) @errmsg_internal(ptr noundef nonnull @.str.21, i32 noundef %49, i32 noundef %51, ptr noundef nonnull %60, i32 noundef %61, double noundef %62, ptr noundef nonnull %64, ptr noundef nonnull %67) #18
  tail call void @errfinish(ptr noundef nonnull @.str.1, i32 noundef 1708, ptr noundef nonnull @__func__.VacuumUpdateCosts) #18
  br label %69

69:                                               ; preds = %43, %55, %41, %40
  ret void
}